
LED-Cube-firmware.elf:     file format elf32-avr

Sections:
Idx Name          Size      VMA       LMA       File off  Algn
  0 .data         00000002  00800200  000005c0  00000654  2**0
                  CONTENTS, ALLOC, LOAD, DATA
  1 .text         000005c0  00000000  00000000  00000094  2**1
                  CONTENTS, ALLOC, LOAD, READONLY, CODE
  2 .bss          00000243  00800202  00800202  00000656  2**0
                  ALLOC
  3 .stab         00000ba0  00000000  00000000  00000658  2**2
                  CONTENTS, READONLY, DEBUGGING
  4 .stabstr      000008a3  00000000  00000000  000011f8  2**0
                  CONTENTS, READONLY, DEBUGGING

Disassembly of section .text:

00000000 <__vectors>:
   0:	0c 94 72 00 	jmp	0xe4	; 0xe4 <__ctors_end>
   4:	0c 94 93 00 	jmp	0x126	; 0x126 <__bad_interrupt>
   8:	0c 94 93 00 	jmp	0x126	; 0x126 <__bad_interrupt>
   c:	0c 94 93 00 	jmp	0x126	; 0x126 <__bad_interrupt>
  10:	0c 94 93 00 	jmp	0x126	; 0x126 <__bad_interrupt>
  14:	0c 94 93 00 	jmp	0x126	; 0x126 <__bad_interrupt>
  18:	0c 94 93 00 	jmp	0x126	; 0x126 <__bad_interrupt>
  1c:	0c 94 93 00 	jmp	0x126	; 0x126 <__bad_interrupt>
  20:	0c 94 93 00 	jmp	0x126	; 0x126 <__bad_interrupt>
  24:	0c 94 93 00 	jmp	0x126	; 0x126 <__bad_interrupt>
  28:	0c 94 93 00 	jmp	0x126	; 0x126 <__bad_interrupt>
  2c:	0c 94 93 00 	jmp	0x126	; 0x126 <__bad_interrupt>
  30:	0c 94 93 00 	jmp	0x126	; 0x126 <__bad_interrupt>
  34:	0c 94 93 00 	jmp	0x126	; 0x126 <__bad_interrupt>
  38:	0c 94 93 00 	jmp	0x126	; 0x126 <__bad_interrupt>
  3c:	0c 94 93 00 	jmp	0x126	; 0x126 <__bad_interrupt>
  40:	0c 94 93 00 	jmp	0x126	; 0x126 <__bad_interrupt>
  44:	0c 94 84 01 	jmp	0x308	; 0x308 <__vector_17>
  48:	0c 94 93 00 	jmp	0x126	; 0x126 <__bad_interrupt>
  4c:	0c 94 93 00 	jmp	0x126	; 0x126 <__bad_interrupt>
  50:	0c 94 93 00 	jmp	0x126	; 0x126 <__bad_interrupt>
  54:	0c 94 93 00 	jmp	0x126	; 0x126 <__bad_interrupt>
  58:	0c 94 93 00 	jmp	0x126	; 0x126 <__bad_interrupt>
  5c:	0c 94 93 00 	jmp	0x126	; 0x126 <__bad_interrupt>
  60:	0c 94 93 00 	jmp	0x126	; 0x126 <__bad_interrupt>
  64:	0c 94 ac 00 	jmp	0x158	; 0x158 <__vector_25>
  68:	0c 94 93 00 	jmp	0x126	; 0x126 <__bad_interrupt>
  6c:	0c 94 93 00 	jmp	0x126	; 0x126 <__bad_interrupt>
  70:	0c 94 93 00 	jmp	0x126	; 0x126 <__bad_interrupt>
  74:	0c 94 93 00 	jmp	0x126	; 0x126 <__bad_interrupt>
  78:	0c 94 93 00 	jmp	0x126	; 0x126 <__bad_interrupt>
  7c:	0c 94 93 00 	jmp	0x126	; 0x126 <__bad_interrupt>
  80:	0c 94 93 00 	jmp	0x126	; 0x126 <__bad_interrupt>
  84:	0c 94 93 00 	jmp	0x126	; 0x126 <__bad_interrupt>
  88:	0c 94 93 00 	jmp	0x126	; 0x126 <__bad_interrupt>
  8c:	0c 94 93 00 	jmp	0x126	; 0x126 <__bad_interrupt>
  90:	0c 94 93 00 	jmp	0x126	; 0x126 <__bad_interrupt>
  94:	0c 94 93 00 	jmp	0x126	; 0x126 <__bad_interrupt>
  98:	0c 94 93 00 	jmp	0x126	; 0x126 <__bad_interrupt>
  9c:	0c 94 93 00 	jmp	0x126	; 0x126 <__bad_interrupt>
  a0:	0c 94 93 00 	jmp	0x126	; 0x126 <__bad_interrupt>
  a4:	0c 94 93 00 	jmp	0x126	; 0x126 <__bad_interrupt>
  a8:	0c 94 93 00 	jmp	0x126	; 0x126 <__bad_interrupt>
  ac:	0c 94 93 00 	jmp	0x126	; 0x126 <__bad_interrupt>
  b0:	0c 94 93 00 	jmp	0x126	; 0x126 <__bad_interrupt>
  b4:	0c 94 93 00 	jmp	0x126	; 0x126 <__bad_interrupt>
  b8:	0c 94 93 00 	jmp	0x126	; 0x126 <__bad_interrupt>
  bc:	0c 94 93 00 	jmp	0x126	; 0x126 <__bad_interrupt>
  c0:	0c 94 93 00 	jmp	0x126	; 0x126 <__bad_interrupt>
  c4:	0c 94 93 00 	jmp	0x126	; 0x126 <__bad_interrupt>
  c8:	0c 94 93 00 	jmp	0x126	; 0x126 <__bad_interrupt>
  cc:	0c 94 93 00 	jmp	0x126	; 0x126 <__bad_interrupt>
  d0:	0c 94 93 00 	jmp	0x126	; 0x126 <__bad_interrupt>
  d4:	0c 94 93 00 	jmp	0x126	; 0x126 <__bad_interrupt>
  d8:	0c 94 93 00 	jmp	0x126	; 0x126 <__bad_interrupt>
  dc:	0c 94 93 00 	jmp	0x126	; 0x126 <__bad_interrupt>
  e0:	0c 94 93 00 	jmp	0x126	; 0x126 <__bad_interrupt>

000000e4 <__ctors_end>:
  e4:	11 24       	eor	r1, r1
  e6:	1f be       	out	0x3f, r1	; 63
  e8:	cf ef       	ldi	r28, 0xFF	; 255
  ea:	d1 e2       	ldi	r29, 0x21	; 33
  ec:	de bf       	out	0x3e, r29	; 62
  ee:	cd bf       	out	0x3d, r28	; 61
  f0:	00 e0       	ldi	r16, 0x00	; 0
  f2:	0c bf       	out	0x3c, r16	; 60

000000f4 <__do_copy_data>:
  f4:	12 e0       	ldi	r17, 0x02	; 2
  f6:	a0 e0       	ldi	r26, 0x00	; 0
  f8:	b2 e0       	ldi	r27, 0x02	; 2
  fa:	e0 ec       	ldi	r30, 0xC0	; 192
  fc:	f5 e0       	ldi	r31, 0x05	; 5
  fe:	00 e0       	ldi	r16, 0x00	; 0
 100:	0b bf       	out	0x3b, r16	; 59
 102:	02 c0       	rjmp	.+4      	; 0x108 <__do_copy_data+0x14>
 104:	07 90       	elpm	r0, Z+
 106:	0d 92       	st	X+, r0
 108:	a2 30       	cpi	r26, 0x02	; 2
 10a:	b1 07       	cpc	r27, r17
 10c:	d9 f7       	brne	.-10     	; 0x104 <__do_copy_data+0x10>

0000010e <__do_clear_bss>:
 10e:	14 e0       	ldi	r17, 0x04	; 4
 110:	a2 e0       	ldi	r26, 0x02	; 2
 112:	b2 e0       	ldi	r27, 0x02	; 2
 114:	01 c0       	rjmp	.+2      	; 0x118 <.do_clear_bss_start>

00000116 <.do_clear_bss_loop>:
 116:	1d 92       	st	X+, r1

00000118 <.do_clear_bss_start>:
 118:	a5 34       	cpi	r26, 0x45	; 69
 11a:	b1 07       	cpc	r27, r17
 11c:	e1 f7       	brne	.-8      	; 0x116 <.do_clear_bss_loop>
 11e:	0e 94 d4 02 	call	0x5a8	; 0x5a8 <main>
 122:	0c 94 de 02 	jmp	0x5bc	; 0x5bc <_exit>

00000126 <__bad_interrupt>:
 126:	0c 94 00 00 	jmp	0	; 0x0 <__vectors>

0000012a <comms_init>:
 * cube frames.
 *
 * @author Daniel King
 */
void comms_init()
{
 12a:	df 93       	push	r29
 12c:	cf 93       	push	r28
 12e:	cd b7       	in	r28, 0x3d	; 61
 130:	de b7       	in	r29, 0x3e	; 62
    g_state = STATE_IDLE;
 132:	10 92 02 02 	sts	0x0202, r1

    /* Initialise the UART */
    UBRR0  = (FOSC/(16*BAUD_RATE))-1;
 136:	e4 ec       	ldi	r30, 0xC4	; 196
 138:	f0 e0       	ldi	r31, 0x00	; 0
 13a:	87 e0       	ldi	r24, 0x07	; 7
 13c:	90 e0       	ldi	r25, 0x00	; 0
 13e:	91 83       	std	Z+1, r25	; 0x01
 140:	80 83       	st	Z, r24
    UCSR0C = (0x3 << 1);    /* 8 data bits */
 142:	e2 ec       	ldi	r30, 0xC2	; 194
 144:	f0 e0       	ldi	r31, 0x00	; 0
 146:	86 e0       	ldi	r24, 0x06	; 6
 148:	80 83       	st	Z, r24
    UCSR0B = (1 << RXEN0) | /* Enable Rx */
 14a:	e1 ec       	ldi	r30, 0xC1	; 193
 14c:	f0 e0       	ldi	r31, 0x00	; 0
 14e:	80 e9       	ldi	r24, 0x90	; 144
 150:	80 83       	st	Z, r24
             (1 << RXCIE0); /* Enable Interrupt on Rx*/
}
 152:	cf 91       	pop	r28
 154:	df 91       	pop	r29
 156:	08 95       	ret

00000158 <__vector_25>:
 *
 * @author Daniel King
 */
ISR(USART0_RX_vect, ISR_NAKED)
{
    if ((UCSR0A & 0x1C) == 0) /* Check if any reception errors have occurred */
 158:	e0 ec       	ldi	r30, 0xC0	; 192
 15a:	f0 e0       	ldi	r31, 0x00	; 0
 15c:	80 81       	ld	r24, Z
 15e:	88 2f       	mov	r24, r24
 160:	90 e0       	ldi	r25, 0x00	; 0
 162:	8c 71       	andi	r24, 0x1C	; 28
 164:	90 70       	andi	r25, 0x00	; 0
 166:	00 97       	sbiw	r24, 0x00	; 0
 168:	09 f0       	breq	.+2      	; 0x16c <__vector_25+0x14>
 16a:	47 c0       	rjmp	.+142    	; 0x1fa <__vector_25+0xa2>
    {
        const uint8_t byte = UDR0;
 16c:	e6 ec       	ldi	r30, 0xC6	; 198
 16e:	f0 e0       	ldi	r31, 0x00	; 0
 170:	80 81       	ld	r24, Z
 172:	89 83       	std	Y+1, r24	; 0x01

        if (0xFF == byte) /* Have we received the start character? */
 174:	89 81       	ldd	r24, Y+1	; 0x01
 176:	8f 3f       	cpi	r24, 0xFF	; 255
 178:	41 f4       	brne	.+16     	; 0x18a <__vector_25+0x32>
        {
            g_state = STATE_RECEIVING;
 17a:	81 e0       	ldi	r24, 0x01	; 1
 17c:	80 93 02 02 	sts	0x0202, r24
            g_frame_count = 0;
 180:	10 92 04 02 	sts	0x0204, r1
 184:	10 92 03 02 	sts	0x0203, r1
 188:	3e c0       	rjmp	.+124    	; 0x206 <__vector_25+0xae>
        }
        else if (STATE_RECEIVING == g_state)
 18a:	80 91 02 02 	lds	r24, 0x0202
 18e:	81 30       	cpi	r24, 0x01	; 1
 190:	d1 f5       	brne	.+116    	; 0x206 <__vector_25+0xae>
        {
            /* The received byte has 2 LEDs worth of data packed into it */
            ((uint8_t*)g_cube)[g_frame_count++] = byte & 0x0F;
 192:	85 e4       	ldi	r24, 0x45	; 69
 194:	92 e0       	ldi	r25, 0x02	; 2
 196:	20 91 03 02 	lds	r18, 0x0203
 19a:	30 91 04 02 	lds	r19, 0x0204
 19e:	fc 01       	movw	r30, r24
 1a0:	e2 0f       	add	r30, r18
 1a2:	f3 1f       	adc	r31, r19
 1a4:	89 81       	ldd	r24, Y+1	; 0x01
 1a6:	8f 70       	andi	r24, 0x0F	; 15
 1a8:	80 83       	st	Z, r24
 1aa:	c9 01       	movw	r24, r18
 1ac:	01 96       	adiw	r24, 0x01	; 1
 1ae:	90 93 04 02 	sts	0x0204, r25
 1b2:	80 93 03 02 	sts	0x0203, r24
            ((uint8_t*)g_cube)[g_frame_count++] = (byte & 0xF0) >> 4;
 1b6:	85 e4       	ldi	r24, 0x45	; 69
 1b8:	92 e0       	ldi	r25, 0x02	; 2
 1ba:	20 91 03 02 	lds	r18, 0x0203
 1be:	30 91 04 02 	lds	r19, 0x0204
 1c2:	fc 01       	movw	r30, r24
 1c4:	e2 0f       	add	r30, r18
 1c6:	f3 1f       	adc	r31, r19
 1c8:	89 81       	ldd	r24, Y+1	; 0x01
 1ca:	82 95       	swap	r24
 1cc:	8f 70       	andi	r24, 0x0F	; 15
 1ce:	80 83       	st	Z, r24
 1d0:	c9 01       	movw	r24, r18
 1d2:	01 96       	adiw	r24, 0x01	; 1
 1d4:	90 93 04 02 	sts	0x0204, r25
 1d8:	80 93 03 02 	sts	0x0203, r24

            if (g_frame_count >= 512) /* Have we updated the whole cube? */
 1dc:	80 91 03 02 	lds	r24, 0x0203
 1e0:	90 91 04 02 	lds	r25, 0x0204
 1e4:	22 e0       	ldi	r18, 0x02	; 2
 1e6:	80 30       	cpi	r24, 0x00	; 0
 1e8:	92 07       	cpc	r25, r18
 1ea:	68 f0       	brcs	.+26     	; 0x206 <__vector_25+0xae>
            {
                /* Wait for the next start character */
                g_state = STATE_IDLE;
 1ec:	10 92 02 02 	sts	0x0202, r1
                g_frame_count = 0;
 1f0:	10 92 04 02 	sts	0x0204, r1
 1f4:	10 92 03 02 	sts	0x0203, r1
 1f8:	06 c0       	rjmp	.+12     	; 0x206 <__vector_25+0xae>
        }
    }
    else
    {
        /* Frame error, data overrun, or parity error - drop the current frame & wait for the next one */
        g_state = STATE_IDLE;
 1fa:	10 92 02 02 	sts	0x0202, r1
        g_frame_count = 0;
 1fe:	10 92 04 02 	sts	0x0204, r1
 202:	10 92 03 02 	sts	0x0203, r1
    }

    /* Since this ISR is ISR_NAKED, we need to explicitly return from the ISR ourselves */
    reti();
 206:	18 95       	reti

00000208 <cube_init>:

/**
 * \brief Initialises the cube and
 */
void cube_init()
{
 208:	df 93       	push	r29
 20a:	cf 93       	push	r28
 20c:	00 d0       	rcall	.+0      	; 0x20e <cube_init+0x6>
 20e:	cd b7       	in	r28, 0x3d	; 61
 210:	de b7       	in	r29, 0x3e	; 62
    /* Initialise the hardware/pins */
    DDRK  = 0xFF; /* 8-bit data bus pins initialised to output */
 212:	e7 e0       	ldi	r30, 0x07	; 7
 214:	f1 e0       	ldi	r31, 0x01	; 1
 216:	8f ef       	ldi	r24, 0xFF	; 255
 218:	80 83       	st	Z, r24
    PORTK = 0;    /* Set data bus to 0 */
 21a:	e8 e0       	ldi	r30, 0x08	; 8
 21c:	f1 e0       	ldi	r31, 0x01	; 1
 21e:	10 82       	st	Z, r1
    DDRA  = 0xFF; /* Set layer pins to output */
 220:	e1 e2       	ldi	r30, 0x21	; 33
 222:	f0 e0       	ldi	r31, 0x00	; 0
 224:	8f ef       	ldi	r24, 0xFF	; 255
 226:	80 83       	st	Z, r24
    PORTA = 0;    /* Turn off all layers */
 228:	e2 e2       	ldi	r30, 0x22	; 34
 22a:	f0 e0       	ldi	r31, 0x00	; 0
 22c:	10 82       	st	Z, r1
    DDRF  = 0xFF; /* Set chip select pins to output */
 22e:	e0 e3       	ldi	r30, 0x30	; 48
 230:	f0 e0       	ldi	r31, 0x00	; 0
 232:	8f ef       	ldi	r24, 0xFF	; 255
 234:	80 83       	st	Z, r24
    PORTF = 0;    /* Chip select LOW for all chips */
 236:	e1 e3       	ldi	r30, 0x31	; 49
 238:	f0 e0       	ldi	r31, 0x00	; 0
 23a:	10 82       	st	Z, r1
    DDRE  = (1 << PE4); /* Set the Output Enable line to output */
 23c:	ed e2       	ldi	r30, 0x2D	; 45
 23e:	f0 e0       	ldi	r31, 0x00	; 0
 240:	80 e1       	ldi	r24, 0x10	; 16
 242:	80 83       	st	Z, r24
    PORTE = (1 << PE4); /* Set Output Enable to HIGH */
 244:	ee e2       	ldi	r30, 0x2E	; 46
 246:	f0 e0       	ldi	r31, 0x00	; 0
 248:	80 e1       	ldi	r24, 0x10	; 16
 24a:	80 83       	st	Z, r24
    PORTE = 0; /* Set Output Enable to LOW */
 24c:	ee e2       	ldi	r30, 0x2E	; 46
 24e:	f0 e0       	ldi	r31, 0x00	; 0
 250:	10 82       	st	Z, r1

    PORTF = 0xFF; /* Pulse all chip selects to latch in 0 into the chips */
 252:	e1 e3       	ldi	r30, 0x31	; 49
 254:	f0 e0       	ldi	r31, 0x00	; 0
 256:	8f ef       	ldi	r24, 0xFF	; 255
 258:	80 83       	st	Z, r24
    PORTF = 0;
 25a:	e1 e3       	ldi	r30, 0x31	; 49
 25c:	f0 e0       	ldi	r31, 0x00	; 0
 25e:	10 82       	st	Z, r1

    /* Initialise the cube */
    for (uint8_t x = 0; x < CUBE_SIZE; ++x)
 260:	1b 82       	std	Y+3, r1	; 0x03
 262:	31 c0       	rjmp	.+98     	; 0x2c6 <cube_init+0xbe>
    {
        for (uint8_t y = 0; y < CUBE_SIZE; ++y)
 264:	1a 82       	std	Y+2, r1	; 0x02
 266:	29 c0       	rjmp	.+82     	; 0x2ba <cube_init+0xb2>
        {
            for (uint8_t z = 0; z < CUBE_SIZE; ++z)
 268:	19 82       	std	Y+1, r1	; 0x01
 26a:	21 c0       	rjmp	.+66     	; 0x2ae <cube_init+0xa6>
            {
                g_cube[x][y][z] = 0;
 26c:	8b 81       	ldd	r24, Y+3	; 0x03
 26e:	68 2f       	mov	r22, r24
 270:	70 e0       	ldi	r23, 0x00	; 0
 272:	8a 81       	ldd	r24, Y+2	; 0x02
 274:	28 2f       	mov	r18, r24
 276:	30 e0       	ldi	r19, 0x00	; 0
 278:	89 81       	ldd	r24, Y+1	; 0x01
 27a:	48 2f       	mov	r20, r24
 27c:	50 e0       	ldi	r21, 0x00	; 0
 27e:	cb 01       	movw	r24, r22
 280:	88 0f       	add	r24, r24
 282:	99 1f       	adc	r25, r25
 284:	88 0f       	add	r24, r24
 286:	99 1f       	adc	r25, r25
 288:	88 0f       	add	r24, r24
 28a:	99 1f       	adc	r25, r25
 28c:	82 0f       	add	r24, r18
 28e:	93 1f       	adc	r25, r19
 290:	88 0f       	add	r24, r24
 292:	99 1f       	adc	r25, r25
 294:	88 0f       	add	r24, r24
 296:	99 1f       	adc	r25, r25
 298:	88 0f       	add	r24, r24
 29a:	99 1f       	adc	r25, r25
 29c:	84 0f       	add	r24, r20
 29e:	95 1f       	adc	r25, r21
 2a0:	fc 01       	movw	r30, r24
 2a2:	eb 5b       	subi	r30, 0xBB	; 187
 2a4:	fd 4f       	sbci	r31, 0xFD	; 253
 2a6:	10 82       	st	Z, r1
    /* Initialise the cube */
    for (uint8_t x = 0; x < CUBE_SIZE; ++x)
    {
        for (uint8_t y = 0; y < CUBE_SIZE; ++y)
        {
            for (uint8_t z = 0; z < CUBE_SIZE; ++z)
 2a8:	89 81       	ldd	r24, Y+1	; 0x01
 2aa:	8f 5f       	subi	r24, 0xFF	; 255
 2ac:	89 83       	std	Y+1, r24	; 0x01
 2ae:	89 81       	ldd	r24, Y+1	; 0x01
 2b0:	88 30       	cpi	r24, 0x08	; 8
 2b2:	e0 f2       	brcs	.-72     	; 0x26c <cube_init+0x64>
    PORTF = 0;

    /* Initialise the cube */
    for (uint8_t x = 0; x < CUBE_SIZE; ++x)
    {
        for (uint8_t y = 0; y < CUBE_SIZE; ++y)
 2b4:	8a 81       	ldd	r24, Y+2	; 0x02
 2b6:	8f 5f       	subi	r24, 0xFF	; 255
 2b8:	8a 83       	std	Y+2, r24	; 0x02
 2ba:	8a 81       	ldd	r24, Y+2	; 0x02
 2bc:	88 30       	cpi	r24, 0x08	; 8
 2be:	a0 f2       	brcs	.-88     	; 0x268 <cube_init+0x60>

    PORTF = 0xFF; /* Pulse all chip selects to latch in 0 into the chips */
    PORTF = 0;

    /* Initialise the cube */
    for (uint8_t x = 0; x < CUBE_SIZE; ++x)
 2c0:	8b 81       	ldd	r24, Y+3	; 0x03
 2c2:	8f 5f       	subi	r24, 0xFF	; 255
 2c4:	8b 83       	std	Y+3, r24	; 0x03
 2c6:	8b 81       	ldd	r24, Y+3	; 0x03
 2c8:	88 30       	cpi	r24, 0x08	; 8
 2ca:	60 f2       	brcs	.-104    	; 0x264 <cube_init+0x5c>
            }
        }
    }

    /* Timer 1 - Cube update timer */
    TIMSK1 = (1U << OCIE1A); /* Output Capture Interrupt Enable */
 2cc:	ef e6       	ldi	r30, 0x6F	; 111
 2ce:	f0 e0       	ldi	r31, 0x00	; 0
 2d0:	82 e0       	ldi	r24, 0x02	; 2
 2d2:	80 83       	st	Z, r24
    OCR1A  = CPU_SPEED/(REFRESH_RATE_HZ*CUBE_SIZE*MAX_BRIGHTNESS); /* Set the max timer value */
 2d4:	e8 e8       	ldi	r30, 0x88	; 136
 2d6:	f0 e0       	ldi	r31, 0x00	; 0
 2d8:	84 e9       	ldi	r24, 0x94	; 148
 2da:	95 e0       	ldi	r25, 0x05	; 5
 2dc:	91 83       	std	Z+1, r25	; 0x01
 2de:	80 83       	st	Z, r24
    ICR1   = OCR1A + 1U;        /* Set counter TOP value */
 2e0:	a6 e8       	ldi	r26, 0x86	; 134
 2e2:	b0 e0       	ldi	r27, 0x00	; 0
 2e4:	e8 e8       	ldi	r30, 0x88	; 136
 2e6:	f0 e0       	ldi	r31, 0x00	; 0
 2e8:	80 81       	ld	r24, Z
 2ea:	91 81       	ldd	r25, Z+1	; 0x01
 2ec:	01 96       	adiw	r24, 0x01	; 1
 2ee:	11 96       	adiw	r26, 0x01	; 1
 2f0:	9c 93       	st	X, r25
 2f2:	8e 93       	st	-X, r24
    TCCR1B = (1U << WGM12) |
 2f4:	e1 e8       	ldi	r30, 0x81	; 129
 2f6:	f0 e0       	ldi	r31, 0x00	; 0
 2f8:	89 e0       	ldi	r24, 0x09	; 9
 2fa:	80 83       	st	Z, r24
             (1U << CS10);      /* Start timer, with no prescaling (16MHz)*/
}
 2fc:	0f 90       	pop	r0
 2fe:	0f 90       	pop	r0
 300:	0f 90       	pop	r0
 302:	cf 91       	pop	r28
 304:	df 91       	pop	r29
 306:	08 95       	ret

00000308 <__vector_17>:

ISR(TIMER1_COMPA_vect, ISR_NAKED)
{
    g_cube[7][7][7] = 14;
 308:	8e e0       	ldi	r24, 0x0E	; 14
 30a:	80 93 44 04 	sts	0x0444, r24

    if (g_counter >= (MAX_BRIGHTNESS - 1)) /* Finished updating the current layer? */
 30e:	80 91 01 02 	lds	r24, 0x0201
 312:	8d 30       	cpi	r24, 0x0D	; 13
 314:	08 f4       	brcc	.+2      	; 0x318 <__vector_17+0x10>
 316:	ca c0       	rjmp	.+404    	; 0x4ac <__vector_17+0x1a4>
    {
        g_counter = 0;
 318:	10 92 01 02 	sts	0x0201, r1

        /* Go to the next layer */
        ++g_layer;
 31c:	80 91 00 02 	lds	r24, 0x0200
 320:	8f 5f       	subi	r24, 0xFF	; 255
 322:	80 93 00 02 	sts	0x0200, r24
        if (g_layer >= CUBE_SIZE) /* Gone over the top of the cube? */
 326:	80 91 00 02 	lds	r24, 0x0200
 32a:	88 30       	cpi	r24, 0x08	; 8
 32c:	10 f0       	brcs	.+4      	; 0x332 <__vector_17+0x2a>
        {
            g_layer = 0;
 32e:	10 92 00 02 	sts	0x0200, r1
        }

        /* Turn off all LEDs while we change layers */
        PORTA = 0;           /* Turn off all layers */
 332:	e2 e2       	ldi	r30, 0x22	; 34
 334:	f0 e0       	ldi	r31, 0x00	; 0
 336:	10 82       	st	Z, r1
        PORTE = (1 << PE4);  /* Set Output Enable to HIGH while we latch data into the bus */
 338:	ee e2       	ldi	r30, 0x2E	; 46
 33a:	f0 e0       	ldi	r31, 0x00	; 0
 33c:	80 e1       	ldi	r24, 0x10	; 16
 33e:	80 83       	st	Z, r24

        /* Go through each row in the layer */
        for (uint8_t x = 0; x < CUBE_SIZE; ++x)
 340:	1e 82       	std	Y+6, r1	; 0x06
 342:	9a c0       	rjmp	.+308    	; 0x478 <__vector_17+0x170>
        {
            uint8_t row_bitmask = 0;
 344:	1d 82       	std	Y+5, r1	; 0x05

            /* Go through each LED in the row */
            for (uint8_t z = 0; z < CUBE_SIZE; ++z)
 346:	1c 82       	std	Y+4, r1	; 0x04
 348:	7b c0       	rjmp	.+246    	; 0x440 <__vector_17+0x138>
            {
                g_curr_layer[x][z] = g_cube[x][g_layer][z];
 34a:	8e 81       	ldd	r24, Y+6	; 0x06
 34c:	a8 2f       	mov	r26, r24
 34e:	b0 e0       	ldi	r27, 0x00	; 0
 350:	8c 81       	ldd	r24, Y+4	; 0x04
 352:	08 2f       	mov	r16, r24
 354:	10 e0       	ldi	r17, 0x00	; 0
 356:	8e 81       	ldd	r24, Y+6	; 0x06
 358:	68 2f       	mov	r22, r24
 35a:	70 e0       	ldi	r23, 0x00	; 0
 35c:	80 91 00 02 	lds	r24, 0x0200
 360:	28 2f       	mov	r18, r24
 362:	30 e0       	ldi	r19, 0x00	; 0
 364:	8c 81       	ldd	r24, Y+4	; 0x04
 366:	48 2f       	mov	r20, r24
 368:	50 e0       	ldi	r21, 0x00	; 0
 36a:	cb 01       	movw	r24, r22
 36c:	88 0f       	add	r24, r24
 36e:	99 1f       	adc	r25, r25
 370:	88 0f       	add	r24, r24
 372:	99 1f       	adc	r25, r25
 374:	88 0f       	add	r24, r24
 376:	99 1f       	adc	r25, r25
 378:	82 0f       	add	r24, r18
 37a:	93 1f       	adc	r25, r19
 37c:	88 0f       	add	r24, r24
 37e:	99 1f       	adc	r25, r25
 380:	88 0f       	add	r24, r24
 382:	99 1f       	adc	r25, r25
 384:	88 0f       	add	r24, r24
 386:	99 1f       	adc	r25, r25
 388:	84 0f       	add	r24, r20
 38a:	95 1f       	adc	r25, r21
 38c:	fc 01       	movw	r30, r24
 38e:	eb 5b       	subi	r30, 0xBB	; 187
 390:	fd 4f       	sbci	r31, 0xFD	; 253
 392:	20 81       	ld	r18, Z
 394:	cd 01       	movw	r24, r26
 396:	88 0f       	add	r24, r24
 398:	99 1f       	adc	r25, r25
 39a:	88 0f       	add	r24, r24
 39c:	99 1f       	adc	r25, r25
 39e:	88 0f       	add	r24, r24
 3a0:	99 1f       	adc	r25, r25
 3a2:	80 0f       	add	r24, r16
 3a4:	91 1f       	adc	r25, r17
 3a6:	fc 01       	movw	r30, r24
 3a8:	eb 5f       	subi	r30, 0xFB	; 251
 3aa:	fd 4f       	sbci	r31, 0xFD	; 253
 3ac:	20 83       	st	Z, r18
                if (g_curr_layer[x][z] > 0)
 3ae:	8e 81       	ldd	r24, Y+6	; 0x06
 3b0:	48 2f       	mov	r20, r24
 3b2:	50 e0       	ldi	r21, 0x00	; 0
 3b4:	8c 81       	ldd	r24, Y+4	; 0x04
 3b6:	28 2f       	mov	r18, r24
 3b8:	30 e0       	ldi	r19, 0x00	; 0
 3ba:	ca 01       	movw	r24, r20
 3bc:	88 0f       	add	r24, r24
 3be:	99 1f       	adc	r25, r25
 3c0:	88 0f       	add	r24, r24
 3c2:	99 1f       	adc	r25, r25
 3c4:	88 0f       	add	r24, r24
 3c6:	99 1f       	adc	r25, r25
 3c8:	82 0f       	add	r24, r18
 3ca:	93 1f       	adc	r25, r19
 3cc:	fc 01       	movw	r30, r24
 3ce:	eb 5f       	subi	r30, 0xFB	; 251
 3d0:	fd 4f       	sbci	r31, 0xFD	; 253
 3d2:	80 81       	ld	r24, Z
 3d4:	88 23       	and	r24, r24
 3d6:	89 f1       	breq	.+98     	; 0x43a <__vector_17+0x132>
                {
                    --g_curr_layer[x][z];
 3d8:	8e 81       	ldd	r24, Y+6	; 0x06
 3da:	48 2f       	mov	r20, r24
 3dc:	50 e0       	ldi	r21, 0x00	; 0
 3de:	8c 81       	ldd	r24, Y+4	; 0x04
 3e0:	28 2f       	mov	r18, r24
 3e2:	30 e0       	ldi	r19, 0x00	; 0
 3e4:	ca 01       	movw	r24, r20
 3e6:	88 0f       	add	r24, r24
 3e8:	99 1f       	adc	r25, r25
 3ea:	88 0f       	add	r24, r24
 3ec:	99 1f       	adc	r25, r25
 3ee:	88 0f       	add	r24, r24
 3f0:	99 1f       	adc	r25, r25
 3f2:	82 0f       	add	r24, r18
 3f4:	93 1f       	adc	r25, r19
 3f6:	fc 01       	movw	r30, r24
 3f8:	eb 5f       	subi	r30, 0xFB	; 251
 3fa:	fd 4f       	sbci	r31, 0xFD	; 253
 3fc:	80 81       	ld	r24, Z
 3fe:	68 2f       	mov	r22, r24
 400:	61 50       	subi	r22, 0x01	; 1
 402:	ca 01       	movw	r24, r20
 404:	88 0f       	add	r24, r24
 406:	99 1f       	adc	r25, r25
 408:	88 0f       	add	r24, r24
 40a:	99 1f       	adc	r25, r25
 40c:	88 0f       	add	r24, r24
 40e:	99 1f       	adc	r25, r25
 410:	82 0f       	add	r24, r18
 412:	93 1f       	adc	r25, r19
 414:	fc 01       	movw	r30, r24
 416:	eb 5f       	subi	r30, 0xFB	; 251
 418:	fd 4f       	sbci	r31, 0xFD	; 253
 41a:	60 83       	st	Z, r22
                    row_bitmask |= (1 << z);
 41c:	8c 81       	ldd	r24, Y+4	; 0x04
 41e:	28 2f       	mov	r18, r24
 420:	30 e0       	ldi	r19, 0x00	; 0
 422:	81 e0       	ldi	r24, 0x01	; 1
 424:	90 e0       	ldi	r25, 0x00	; 0
 426:	02 2e       	mov	r0, r18
 428:	02 c0       	rjmp	.+4      	; 0x42e <__vector_17+0x126>
 42a:	88 0f       	add	r24, r24
 42c:	99 1f       	adc	r25, r25
 42e:	0a 94       	dec	r0
 430:	e2 f7       	brpl	.-8      	; 0x42a <__vector_17+0x122>
 432:	98 2f       	mov	r25, r24
 434:	8d 81       	ldd	r24, Y+5	; 0x05
 436:	89 2b       	or	r24, r25
 438:	8d 83       	std	Y+5, r24	; 0x05
        for (uint8_t x = 0; x < CUBE_SIZE; ++x)
        {
            uint8_t row_bitmask = 0;

            /* Go through each LED in the row */
            for (uint8_t z = 0; z < CUBE_SIZE; ++z)
 43a:	8c 81       	ldd	r24, Y+4	; 0x04
 43c:	8f 5f       	subi	r24, 0xFF	; 255
 43e:	8c 83       	std	Y+4, r24	; 0x04
 440:	8c 81       	ldd	r24, Y+4	; 0x04
 442:	88 30       	cpi	r24, 0x08	; 8
 444:	08 f4       	brcc	.+2      	; 0x448 <__vector_17+0x140>
 446:	81 cf       	rjmp	.-254    	; 0x34a <__vector_17+0x42>
                    --g_curr_layer[x][z];
                    row_bitmask |= (1 << z);
                }
            }

            PORTK = row_bitmask; /* Put LED states to data bus */
 448:	e8 e0       	ldi	r30, 0x08	; 8
 44a:	f1 e0       	ldi	r31, 0x01	; 1
 44c:	8d 81       	ldd	r24, Y+5	; 0x05
 44e:	80 83       	st	Z, r24
            PORTF = (1 << x);    /* Set chip select for this row to HIGH to latch in the data on the bus */
 450:	e1 e3       	ldi	r30, 0x31	; 49
 452:	f0 e0       	ldi	r31, 0x00	; 0
 454:	8e 81       	ldd	r24, Y+6	; 0x06
 456:	28 2f       	mov	r18, r24
 458:	30 e0       	ldi	r19, 0x00	; 0
 45a:	81 e0       	ldi	r24, 0x01	; 1
 45c:	90 e0       	ldi	r25, 0x00	; 0
 45e:	02 2e       	mov	r0, r18
 460:	02 c0       	rjmp	.+4      	; 0x466 <__vector_17+0x15e>
 462:	88 0f       	add	r24, r24
 464:	99 1f       	adc	r25, r25
 466:	0a 94       	dec	r0
 468:	e2 f7       	brpl	.-8      	; 0x462 <__vector_17+0x15a>
 46a:	80 83       	st	Z, r24
            PORTF = 0;           /* Data has been latched - deselect the chip */
 46c:	e1 e3       	ldi	r30, 0x31	; 49
 46e:	f0 e0       	ldi	r31, 0x00	; 0
 470:	10 82       	st	Z, r1
        /* Turn off all LEDs while we change layers */
        PORTA = 0;           /* Turn off all layers */
        PORTE = (1 << PE4);  /* Set Output Enable to HIGH while we latch data into the bus */

        /* Go through each row in the layer */
        for (uint8_t x = 0; x < CUBE_SIZE; ++x)
 472:	8e 81       	ldd	r24, Y+6	; 0x06
 474:	8f 5f       	subi	r24, 0xFF	; 255
 476:	8e 83       	std	Y+6, r24	; 0x06
 478:	8e 81       	ldd	r24, Y+6	; 0x06
 47a:	88 30       	cpi	r24, 0x08	; 8
 47c:	08 f4       	brcc	.+2      	; 0x480 <__vector_17+0x178>
 47e:	62 cf       	rjmp	.-316    	; 0x344 <__vector_17+0x3c>
            PORTK = row_bitmask; /* Put LED states to data bus */
            PORTF = (1 << x);    /* Set chip select for this row to HIGH to latch in the data on the bus */
            PORTF = 0;           /* Data has been latched - deselect the chip */
        }

        PORTK = 0;           /* Unset the bus */
 480:	e8 e0       	ldi	r30, 0x08	; 8
 482:	f1 e0       	ldi	r31, 0x01	; 1
 484:	10 82       	st	Z, r1
        PORTE = 0;           /* Enable the output */
 486:	ee e2       	ldi	r30, 0x2E	; 46
 488:	f0 e0       	ldi	r31, 0x00	; 0
 48a:	10 82       	st	Z, r1
        PORTA = (1 << g_layer); /* Turn on the current layer only */
 48c:	e2 e2       	ldi	r30, 0x22	; 34
 48e:	f0 e0       	ldi	r31, 0x00	; 0
 490:	80 91 00 02 	lds	r24, 0x0200
 494:	28 2f       	mov	r18, r24
 496:	30 e0       	ldi	r19, 0x00	; 0
 498:	81 e0       	ldi	r24, 0x01	; 1
 49a:	90 e0       	ldi	r25, 0x00	; 0
 49c:	02 2e       	mov	r0, r18
 49e:	02 c0       	rjmp	.+4      	; 0x4a4 <__vector_17+0x19c>
 4a0:	88 0f       	add	r24, r24
 4a2:	99 1f       	adc	r25, r25
 4a4:	0a 94       	dec	r0
 4a6:	e2 f7       	brpl	.-8      	; 0x4a0 <__vector_17+0x198>
 4a8:	80 83       	st	Z, r24
 4aa:	7d c0       	rjmp	.+250    	; 0x5a6 <__vector_17+0x29e>
    }
    else /* Update the current layer */
    {
        ++g_counter;
 4ac:	80 91 01 02 	lds	r24, 0x0201
 4b0:	8f 5f       	subi	r24, 0xFF	; 255
 4b2:	80 93 01 02 	sts	0x0201, r24

        /* Go through each row/latch chip */
        PORTE = (1 << PE4);  /* Set Output Enable to HIGH while we latch data into the bus */
 4b6:	ee e2       	ldi	r30, 0x2E	; 46
 4b8:	f0 e0       	ldi	r31, 0x00	; 0
 4ba:	80 e1       	ldi	r24, 0x10	; 16
 4bc:	80 83       	st	Z, r24
        for (uint8_t x = 0; x < CUBE_SIZE; ++x)
 4be:	1b 82       	std	Y+3, r1	; 0x03
 4c0:	68 c0       	rjmp	.+208    	; 0x592 <__vector_17+0x28a>
        {
            uint8_t row_bitmask = 0;
 4c2:	1a 82       	std	Y+2, r1	; 0x02
            for (uint8_t z = 0; z < CUBE_SIZE; ++z)
 4c4:	19 82       	std	Y+1, r1	; 0x01
 4c6:	49 c0       	rjmp	.+146    	; 0x55a <__vector_17+0x252>
            {
                if (g_curr_layer[x][z] > 0) /* Is the LED on? */
 4c8:	8b 81       	ldd	r24, Y+3	; 0x03
 4ca:	48 2f       	mov	r20, r24
 4cc:	50 e0       	ldi	r21, 0x00	; 0
 4ce:	89 81       	ldd	r24, Y+1	; 0x01
 4d0:	28 2f       	mov	r18, r24
 4d2:	30 e0       	ldi	r19, 0x00	; 0
 4d4:	ca 01       	movw	r24, r20
 4d6:	88 0f       	add	r24, r24
 4d8:	99 1f       	adc	r25, r25
 4da:	88 0f       	add	r24, r24
 4dc:	99 1f       	adc	r25, r25
 4de:	88 0f       	add	r24, r24
 4e0:	99 1f       	adc	r25, r25
 4e2:	82 0f       	add	r24, r18
 4e4:	93 1f       	adc	r25, r19
 4e6:	fc 01       	movw	r30, r24
 4e8:	eb 5f       	subi	r30, 0xFB	; 251
 4ea:	fd 4f       	sbci	r31, 0xFD	; 253
 4ec:	80 81       	ld	r24, Z
 4ee:	88 23       	and	r24, r24
 4f0:	89 f1       	breq	.+98     	; 0x554 <__vector_17+0x24c>
                {
                    --g_curr_layer[x][z];   /* Decay the brightness - LED will be off when it reaches 0*/
 4f2:	8b 81       	ldd	r24, Y+3	; 0x03
 4f4:	48 2f       	mov	r20, r24
 4f6:	50 e0       	ldi	r21, 0x00	; 0
 4f8:	89 81       	ldd	r24, Y+1	; 0x01
 4fa:	28 2f       	mov	r18, r24
 4fc:	30 e0       	ldi	r19, 0x00	; 0
 4fe:	ca 01       	movw	r24, r20
 500:	88 0f       	add	r24, r24
 502:	99 1f       	adc	r25, r25
 504:	88 0f       	add	r24, r24
 506:	99 1f       	adc	r25, r25
 508:	88 0f       	add	r24, r24
 50a:	99 1f       	adc	r25, r25
 50c:	82 0f       	add	r24, r18
 50e:	93 1f       	adc	r25, r19
 510:	fc 01       	movw	r30, r24
 512:	eb 5f       	subi	r30, 0xFB	; 251
 514:	fd 4f       	sbci	r31, 0xFD	; 253
 516:	80 81       	ld	r24, Z
 518:	68 2f       	mov	r22, r24
 51a:	61 50       	subi	r22, 0x01	; 1
 51c:	ca 01       	movw	r24, r20
 51e:	88 0f       	add	r24, r24
 520:	99 1f       	adc	r25, r25
 522:	88 0f       	add	r24, r24
 524:	99 1f       	adc	r25, r25
 526:	88 0f       	add	r24, r24
 528:	99 1f       	adc	r25, r25
 52a:	82 0f       	add	r24, r18
 52c:	93 1f       	adc	r25, r19
 52e:	fc 01       	movw	r30, r24
 530:	eb 5f       	subi	r30, 0xFB	; 251
 532:	fd 4f       	sbci	r31, 0xFD	; 253
 534:	60 83       	st	Z, r22
                    row_bitmask |= (1 << z);
 536:	89 81       	ldd	r24, Y+1	; 0x01
 538:	28 2f       	mov	r18, r24
 53a:	30 e0       	ldi	r19, 0x00	; 0
 53c:	81 e0       	ldi	r24, 0x01	; 1
 53e:	90 e0       	ldi	r25, 0x00	; 0
 540:	02 2e       	mov	r0, r18
 542:	02 c0       	rjmp	.+4      	; 0x548 <__vector_17+0x240>
 544:	88 0f       	add	r24, r24
 546:	99 1f       	adc	r25, r25
 548:	0a 94       	dec	r0
 54a:	e2 f7       	brpl	.-8      	; 0x544 <__vector_17+0x23c>
 54c:	98 2f       	mov	r25, r24
 54e:	8a 81       	ldd	r24, Y+2	; 0x02
 550:	89 2b       	or	r24, r25
 552:	8a 83       	std	Y+2, r24	; 0x02
        /* Go through each row/latch chip */
        PORTE = (1 << PE4);  /* Set Output Enable to HIGH while we latch data into the bus */
        for (uint8_t x = 0; x < CUBE_SIZE; ++x)
        {
            uint8_t row_bitmask = 0;
            for (uint8_t z = 0; z < CUBE_SIZE; ++z)
 554:	89 81       	ldd	r24, Y+1	; 0x01
 556:	8f 5f       	subi	r24, 0xFF	; 255
 558:	89 83       	std	Y+1, r24	; 0x01
 55a:	89 81       	ldd	r24, Y+1	; 0x01
 55c:	88 30       	cpi	r24, 0x08	; 8
 55e:	08 f4       	brcc	.+2      	; 0x562 <__vector_17+0x25a>
 560:	b3 cf       	rjmp	.-154    	; 0x4c8 <__vector_17+0x1c0>
                    --g_curr_layer[x][z];   /* Decay the brightness - LED will be off when it reaches 0*/
                    row_bitmask |= (1 << z);
                }
            }

            PORTK = row_bitmask; /* Put LED states for this row to the data bus */
 562:	e8 e0       	ldi	r30, 0x08	; 8
 564:	f1 e0       	ldi	r31, 0x01	; 1
 566:	8a 81       	ldd	r24, Y+2	; 0x02
 568:	80 83       	st	Z, r24
            PORTF = (1 << x);    /* Set chip select for this row to HIGH to latch in the data on the bus */
 56a:	e1 e3       	ldi	r30, 0x31	; 49
 56c:	f0 e0       	ldi	r31, 0x00	; 0
 56e:	8b 81       	ldd	r24, Y+3	; 0x03
 570:	28 2f       	mov	r18, r24
 572:	30 e0       	ldi	r19, 0x00	; 0
 574:	81 e0       	ldi	r24, 0x01	; 1
 576:	90 e0       	ldi	r25, 0x00	; 0
 578:	02 2e       	mov	r0, r18
 57a:	02 c0       	rjmp	.+4      	; 0x580 <__vector_17+0x278>
 57c:	88 0f       	add	r24, r24
 57e:	99 1f       	adc	r25, r25
 580:	0a 94       	dec	r0
 582:	e2 f7       	brpl	.-8      	; 0x57c <__vector_17+0x274>
 584:	80 83       	st	Z, r24
            PORTF = 0;           /* Data has been latched - deselect the chip */
 586:	e1 e3       	ldi	r30, 0x31	; 49
 588:	f0 e0       	ldi	r31, 0x00	; 0
 58a:	10 82       	st	Z, r1
    {
        ++g_counter;

        /* Go through each row/latch chip */
        PORTE = (1 << PE4);  /* Set Output Enable to HIGH while we latch data into the bus */
        for (uint8_t x = 0; x < CUBE_SIZE; ++x)
 58c:	8b 81       	ldd	r24, Y+3	; 0x03
 58e:	8f 5f       	subi	r24, 0xFF	; 255
 590:	8b 83       	std	Y+3, r24	; 0x03
 592:	8b 81       	ldd	r24, Y+3	; 0x03
 594:	88 30       	cpi	r24, 0x08	; 8
 596:	08 f4       	brcc	.+2      	; 0x59a <__vector_17+0x292>
 598:	94 cf       	rjmp	.-216    	; 0x4c2 <__vector_17+0x1ba>
            PORTK = row_bitmask; /* Put LED states for this row to the data bus */
            PORTF = (1 << x);    /* Set chip select for this row to HIGH to latch in the data on the bus */
            PORTF = 0;           /* Data has been latched - deselect the chip */
        }

        PORTK = 0;           /* Unset the bus */
 59a:	e8 e0       	ldi	r30, 0x08	; 8
 59c:	f1 e0       	ldi	r31, 0x01	; 1
 59e:	10 82       	st	Z, r1
        PORTE = 0;           /* Enable the output */
 5a0:	ee e2       	ldi	r30, 0x2E	; 46
 5a2:	f0 e0       	ldi	r31, 0x00	; 0
 5a4:	10 82       	st	Z, r1
    }

    /* Since this ISR is ISR_NAKED, we need to explicitly return from the ISR ourselves */
    reti();
 5a6:	18 95       	reti

000005a8 <main>:
#include "cube.h"
#include "comms.h"


int main(void)
{
 5a8:	df 93       	push	r29
 5aa:	cf 93       	push	r28
 5ac:	cd b7       	in	r28, 0x3d	; 61
 5ae:	de b7       	in	r29, 0x3e	; 62
    cube_init();
 5b0:	0e 94 04 01 	call	0x208	; 0x208 <cube_init>
    comms_init();
 5b4:	0e 94 95 00 	call	0x12a	; 0x12a <comms_init>

	sei(); /* Enable interrupts */
 5b8:	78 94       	sei
 5ba:	ff cf       	rjmp	.-2      	; 0x5ba <main+0x12>

000005bc <_exit>:
 5bc:	f8 94       	cli

000005be <__stop_program>:
 5be:	ff cf       	rjmp	.-2      	; 0x5be <__stop_program>
